; Function Attrs: nounwind uwtable
define hidden void @_mi_segment_page_abandon(ptr noundef %0, ptr noundef captures(none) %1) local_unnamed_addr #5 {
  %3 = ptrtoint ptr %0 to i64
  %4 = and i64 %3, -67108864
  %5 = inttoptr i64 %4 to ptr
  %6 = getelementptr inbounds nuw i8, ptr %5, i64 296
  %7 = load i64, ptr %6, align 8, !tbaa !27
  %8 = add i64 %7, 1
  store i64 %8, ptr %6, align 8, !tbaa !27
  %9 = getelementptr inbounds nuw i8, ptr %1, i64 896
  %10 = load ptr, ptr %9, align 8, !tbaa !30
  %11 = getelementptr inbounds nuw i8, ptr %10, i64 224
  tail call void @_mi_stat_increase(ptr noundef nonnull %11, i64 noundef 1) #9
  %12 = getelementptr inbounds nuw i8, ptr %5, i64 312
  %13 = load i64, ptr %12, align 8, !tbaa !22
  %14 = load i64, ptr %6, align 8, !tbaa !27
  %15 = icmp eq i64 %13, %14
  br i1 %15, label %16, label %17

16:                                               ; preds = %2
  tail call fastcc void @mi_segment_abandon(ptr noundef nonnull %5, ptr noundef nonnull %1)
  br label %17

17:                                               ; preds = %16, %2
  ret void
}